target datalayout = "e-m:e-p270:32:32-p271:32:32-p272:64:64-i64:64-i128:128-f80:128-n8:16:32:64-S128"
target triple = "x86_64-pc-linux-gnu"

%struct.LZ4_stream_t_internal = type { [4096 x i32], ptr, ptr, i32, i32, i32 }

; Function Attrs: nounwind uwtable
define dso_local i32 @LZ4_saveDict(ptr noundef %0, ptr noundef %1, i32 noundef %2) #0 {
  %4 = alloca ptr, align 8
  %5 = alloca ptr, align 8
  %6 = alloca i32, align 4
  %7 = alloca ptr, align 8
  %8 = alloca ptr, align 8
  store ptr %0, ptr %4, align 8, !tbaa !25
  store ptr %1, ptr %5, align 8, !tbaa !10
  store i32 %2, ptr %6, align 4, !tbaa !4
  call void @llvm.lifetime.start.p0(i64 8, ptr %7) #10
  %9 = load ptr, ptr %4, align 8, !tbaa !25
  store ptr %9, ptr %7, align 8, !tbaa !12
  %10 = load i32, ptr %6, align 4, !tbaa !4
  %11 = icmp ugt i32 %10, 65536
  br i1 %11, label %12, label %13

12:                                               ; preds = %3
  store i32 65536, ptr %6, align 4, !tbaa !4
  br label %13

13:                                               ; preds = %12, %3
  %14 = load i32, ptr %6, align 4, !tbaa !4
  %15 = load ptr, ptr %7, align 8, !tbaa !12
  %16 = getelementptr inbounds nuw %struct.LZ4_stream_t_internal, ptr %15, i32 0, i32 5
  %17 = load i32, ptr %16, align 8, !tbaa !24
  %18 = icmp ugt i32 %14, %17
  br i1 %18, label %19, label %23

19:                                               ; preds = %13
  %20 = load ptr, ptr %7, align 8, !tbaa !12
  %21 = getelementptr inbounds nuw %struct.LZ4_stream_t_internal, ptr %20, i32 0, i32 5
  %22 = load i32, ptr %21, align 8, !tbaa !24
  store i32 %22, ptr %6, align 4, !tbaa !4
  br label %23

23:                                               ; preds = %19, %13
  %24 = load ptr, ptr %5, align 8, !tbaa !10
  %25 = icmp eq ptr %24, null
  br i1 %25, label %26, label %27

26:                                               ; preds = %23
  br label %27

27:                                               ; preds = %26, %23
  %28 = load i32, ptr %6, align 4, !tbaa !4
  %29 = icmp sgt i32 %28, 0
  br i1 %29, label %30, label %47

30:                                               ; preds = %27
  call void @llvm.lifetime.start.p0(i64 8, ptr %8) #10
  %31 = load ptr, ptr %7, align 8, !tbaa !12
  %32 = getelementptr inbounds nuw %struct.LZ4_stream_t_internal, ptr %31, i32 0, i32 1
  %33 = load ptr, ptr %32, align 8, !tbaa !23
  %34 = load ptr, ptr %7, align 8, !tbaa !12
  %35 = getelementptr inbounds nuw %struct.LZ4_stream_t_internal, ptr %34, i32 0, i32 5
  %36 = load i32, ptr %35, align 8, !tbaa !24
  %37 = zext i32 %36 to i64
  %38 = getelementptr inbounds nuw i8, ptr %33, i64 %37
  store ptr %38, ptr %8, align 8, !tbaa !10
  %39 = load ptr, ptr %5, align 8, !tbaa !10
  %40 = load ptr, ptr %8, align 8, !tbaa !10
  %41 = load i32, ptr %6, align 4, !tbaa !4
  %42 = sext i32 %41 to i64
  %43 = sub i64 0, %42
  %44 = getelementptr inbounds i8, ptr %40, i64 %43
  %45 = load i32, ptr %6, align 4, !tbaa !4
  %46 = sext i32 %45 to i64
  call void @llvm.memmove.p0.p0.i64(ptr align 1 %39, ptr align 1 %44, i64 %46, i1 false)
  call void @llvm.lifetime.end.p0(i64 8, ptr %8) #10
  br label %47

47:                                               ; preds = %30, %27
  %48 = load ptr, ptr %5, align 8, !tbaa !10
  %49 = load ptr, ptr %7, align 8, !tbaa !12
  %50 = getelementptr inbounds nuw %struct.LZ4_stream_t_internal, ptr %49, i32 0, i32 1
  store ptr %48, ptr %50, align 8, !tbaa !23
  %51 = load i32, ptr %6, align 4, !tbaa !4
  %52 = load ptr, ptr %7, align 8, !tbaa !12
  %53 = getelementptr inbounds nuw %struct.LZ4_stream_t_internal, ptr %52, i32 0, i32 5
  store i32 %51, ptr %53, align 8, !tbaa !24
  %54 = load i32, ptr %6, align 4, !tbaa !4
  call void @llvm.lifetime.end.p0(i64 8, ptr %7) #10
  ret i32 %54
}